target datalayout = "e-m:e-p270:32:32-p271:32:32-p272:64:64-i64:64-i128:128-f80:128-n8:16:32:64-S128"
target triple = "x86_64-pc-linux-gnu"

%class.G1AbstractSubTask = type <{ ptr, i32, [4 x i8] }>
%class.TimeInstant = type { %class.CompositeCounterRepresentation }
%class.CompositeCounterRepresentation = type { %class.Representation }
%class.Representation = type { %class.PairRep }
%class.PairRep = type { i64, i64 }
%class.GrowableArrayBase = type { i32, i32 }
%class.G1BatchedTask = type { %class.WorkerTask.base, i32, ptr, %class.GrowableArrayCHeap, %class.GrowableArrayCHeap }
%class.WorkerTask.base = type <{ ptr, ptr, i32 }>
%class.GrowableArrayCHeap = type { %class.GrowableArrayWithAllocator.7 }
%class.GrowableArrayWithAllocator.7 = type { %class.GrowableArrayView.8 }
%class.GrowableArrayView.8 = type { %class.GrowableArrayBase, ptr }
%class.GrowableArrayIterator = type <{ ptr, i32, [4 x i8] }>
%class.G1GCParPhaseTimesTracker = type <{ ptr, %class.TimeInstant, i32, [4 x i8], ptr, i32, [4 x i8], %class.EventGCPhaseParallel, i8, [7 x i8] }>
%class.EventGCPhaseParallel = type { %class.JfrEvent.base, i32, i32, ptr }
%class.JfrEvent.base = type <{ i64, i64, i8, i8, i8 }>
%"struct.Atomic::PlatformAdd" = type { i8 }

; Function Attrs: mustprogress nounwind uwtable
define linkonce_odr hidden noundef i32 @_ZNK6Atomic11PlatformAddILm4EE14fetch_then_addIiiEET_PVS3_T0_19atomic_memory_order(ptr noundef nonnull align 1 dereferenceable(1) %0, ptr noundef %1, i32 noundef %2, i32 noundef %3) #1 comdat align 2 {
  %5 = alloca ptr, align 8
  %6 = alloca ptr, align 8
  %7 = alloca i32, align 4
  %8 = alloca i32, align 4
  %9 = alloca i32, align 4
  store ptr %0, ptr %5, align 8
  store ptr %1, ptr %6, align 8
  store i32 %2, ptr %7, align 4
  store i32 %3, ptr %8, align 4
  %10 = load i32, ptr %7, align 4
  %11 = load ptr, ptr %6, align 8
  %12 = call i32 asm sideeffect "lock xaddl $0,($2)", "=r,0,r,~{cc},~{memory},~{dirflag},~{fpsr},~{flags}"(i32 %10, ptr %11) #9, !srcloc !8
  store i32 %12, ptr %9, align 4
  %13 = load i32, ptr %9, align 4
  ret i32 %13
}

; Function Attrs: mustprogress nounwind uwtable
define linkonce_odr hidden noundef i32 @_ZN6Atomic7AddImplIiivE14fetch_then_addEPVii19atomic_memory_order(ptr noundef %0, i32 noundef %1, i32 noundef %2) #1 comdat align 2 {
  %4 = alloca ptr, align 8
  %5 = alloca i32, align 4
  %6 = alloca i32, align 4
  %7 = alloca i32, align 4
  %8 = alloca %"struct.Atomic::PlatformAdd", align 1
  store ptr %0, ptr %4, align 8
  store i32 %1, ptr %5, align 4
  store i32 %2, ptr %6, align 4
  %9 = load i32, ptr %5, align 4
  store i32 %9, ptr %7, align 4
  %10 = load ptr, ptr %4, align 8
  %11 = load i32, ptr %7, align 4
  %12 = load i32, ptr %6, align 4
  %13 = call noundef i32 @_ZNK6Atomic11PlatformAddILm4EE14fetch_then_addIiiEET_PVS3_T0_19atomic_memory_order(ptr noundef nonnull align 1 dereferenceable(1) %8, ptr noundef %10, i32 noundef %11, i32 noundef %12)
  ret i32 %13
}

; Function Attrs: mustprogress nounwind uwtable
define linkonce_odr hidden noundef nonnull align 8 dereferenceable(8) ptr @_ZNK17GrowableArrayViewIP17G1AbstractSubTaskE2atEi(ptr noundef nonnull align 8 dereferenceable(16) %0, i32 noundef %1) #1 comdat align 2 {
  %3 = alloca ptr, align 8
  %4 = alloca i32, align 4
  store ptr %0, ptr %3, align 8
  store i32 %1, ptr %4, align 4
  %5 = load ptr, ptr %3, align 8
  %6 = getelementptr inbounds %class.GrowableArrayView.8, ptr %5, i32 0, i32 1
  %7 = load ptr, ptr %6, align 8
  %8 = load i32, ptr %4, align 4
  %9 = sext i32 %8 to i64
  %10 = getelementptr inbounds ptr, ptr %7, i64 %9
  ret ptr %10
}

; Function Attrs: mustprogress nounwind uwtable
define linkonce_odr hidden void @_ZN21GrowableArrayIteratorIP17G1AbstractSubTaskEC2EPK17GrowableArrayViewIS1_Ei(ptr noundef nonnull align 8 dereferenceable(12) %0, ptr noundef %1, i32 noundef %2) unnamed_addr #1 comdat align 2 {
  %4 = alloca ptr, align 8
  %5 = alloca ptr, align 8
  %6 = alloca i32, align 4
  store ptr %0, ptr %4, align 8
  store ptr %1, ptr %5, align 8
  store i32 %2, ptr %6, align 4
  %7 = load ptr, ptr %4, align 8
  %8 = getelementptr inbounds %class.GrowableArrayIterator, ptr %7, i32 0, i32 0
  %9 = load ptr, ptr %5, align 8
  store ptr %9, ptr %8, align 8
  %10 = getelementptr inbounds %class.GrowableArrayIterator, ptr %7, i32 0, i32 1
  %11 = load i32, ptr %6, align 4
  store i32 %11, ptr %10, align 8
  ret void
}

; Function Attrs: mustprogress nounwind uwtable
define linkonce_odr hidden noundef i32 @_ZNK17GrowableArrayBase6lengthEv(ptr noundef nonnull align 4 dereferenceable(8) %0) #1 comdat align 2 {
  %2 = alloca ptr, align 8
  store ptr %0, ptr %2, align 8
  %3 = load ptr, ptr %2, align 8
  %4 = getelementptr inbounds %class.GrowableArrayBase, ptr %3, i32 0, i32 0
  %5 = load i32, ptr %4, align 4
  ret i32 %5
}

; Function Attrs: mustprogress nounwind uwtable
define linkonce_odr hidden noundef i32 @_ZN6Atomic14fetch_then_addIiiEET_PVS1_T0_19atomic_memory_order(ptr noundef %0, i32 noundef %1, i32 noundef %2) #1 comdat align 2 {
  %4 = alloca ptr, align 8
  %5 = alloca i32, align 4
  %6 = alloca i32, align 4
  store ptr %0, ptr %4, align 8
  store i32 %1, ptr %5, align 4
  store i32 %2, ptr %6, align 4
  %7 = load ptr, ptr %4, align 8
  %8 = load i32, ptr %5, align 4
  %9 = load i32, ptr %6, align 4
  %10 = call noundef i32 @_ZN6Atomic7AddImplIiivE14fetch_then_addEPVii19atomic_memory_order(ptr noundef %7, i32 noundef %8, i32 noundef %9)
  ret i32 %10
}

; Function Attrs: mustprogress nounwind uwtable
define linkonce_odr hidden noundef nonnull align 8 dereferenceable(12) ptr @_ZN21GrowableArrayIteratorIP17G1AbstractSubTaskEppEv(ptr noundef nonnull align 8 dereferenceable(12) %0) #1 comdat align 2 {
  %2 = alloca ptr, align 8
  store ptr %0, ptr %2, align 8
  %3 = load ptr, ptr %2, align 8
  %4 = getelementptr inbounds %class.GrowableArrayIterator, ptr %3, i32 0, i32 1
  %5 = load i32, ptr %4, align 8
  %6 = add nsw i32 %5, 1
  store i32 %6, ptr %4, align 8
  ret ptr %3
}

; Function Attrs: mustprogress nounwind uwtable
define linkonce_odr hidden noundef ptr @_ZN21GrowableArrayIteratorIP17G1AbstractSubTaskEdeEv(ptr noundef nonnull align 8 dereferenceable(12) %0) #1 comdat align 2 {
  %2 = alloca ptr, align 8
  store ptr %0, ptr %2, align 8
  %3 = load ptr, ptr %2, align 8
  %4 = getelementptr inbounds %class.GrowableArrayIterator, ptr %3, i32 0, i32 0
  %5 = load ptr, ptr %4, align 8
  %6 = getelementptr inbounds %class.GrowableArrayIterator, ptr %3, i32 0, i32 1
  %7 = load i32, ptr %6, align 8
  %8 = call noundef nonnull align 8 dereferenceable(8) ptr @_ZNK17GrowableArrayViewIP17G1AbstractSubTaskE2atEi(ptr noundef nonnull align 8 dereferenceable(16) %5, i32 noundef %7)
  %9 = load ptr, ptr %8, align 8
  ret ptr %9
}

; Function Attrs: mustprogress nounwind uwtable
define linkonce_odr hidden noundef zeroext i1 @_ZN21GrowableArrayIteratorIP17G1AbstractSubTaskEneERKS2_(ptr noundef nonnull align 8 dereferenceable(12) %0, ptr noundef nonnull align 8 dereferenceable(12) %1) #1 comdat align 2 {
  %3 = alloca ptr, align 8
  %4 = alloca ptr, align 8
  store ptr %0, ptr %3, align 8
  store ptr %1, ptr %4, align 8
  %5 = load ptr, ptr %3, align 8
  %6 = getelementptr inbounds %class.GrowableArrayIterator, ptr %5, i32 0, i32 1
  %7 = load i32, ptr %6, align 8
  %8 = load ptr, ptr %4, align 8
  %9 = getelementptr inbounds %class.GrowableArrayIterator, ptr %8, i32 0, i32 1
  %10 = load i32, ptr %9, align 8
  %11 = icmp ne i32 %7, %10
  ret i1 %11
}

; Function Attrs: mustprogress nounwind uwtable
define linkonce_odr hidden { ptr, i32 } @_ZNK17GrowableArrayViewIP17G1AbstractSubTaskE3endEv(ptr noundef nonnull align 8 dereferenceable(16) %0) #1 comdat align 2 {
  %2 = alloca %class.GrowableArrayIterator, align 8
  %3 = alloca ptr, align 8
  store ptr %0, ptr %3, align 8
  %4 = load ptr, ptr %3, align 8
  %5 = call noundef i32 @_ZNK17GrowableArrayBase6lengthEv(ptr noundef nonnull align 4 dereferenceable(8) %4)
  call void @_ZN21GrowableArrayIteratorIP17G1AbstractSubTaskEC2EPK17GrowableArrayViewIS1_Ei(ptr noundef nonnull align 8 dereferenceable(12) %2, ptr noundef %4, i32 noundef %5)
  %6 = load { ptr, i32 }, ptr %2, align 8
  ret { ptr, i32 } %6
}

; Function Attrs: mustprogress nounwind uwtable
define linkonce_odr hidden { ptr, i32 } @_ZNK17GrowableArrayViewIP17G1AbstractSubTaskE5beginEv(ptr noundef nonnull align 8 dereferenceable(16) %0) #1 comdat align 2 {
  %2 = alloca %class.GrowableArrayIterator, align 8
  %3 = alloca ptr, align 8
  store ptr %0, ptr %3, align 8
  %4 = load ptr, ptr %3, align 8
  call void @_ZN21GrowableArrayIteratorIP17G1AbstractSubTaskEC2EPK17GrowableArrayViewIS1_Ei(ptr noundef nonnull align 8 dereferenceable(12) %2, ptr noundef %4, i32 noundef 0)
  %5 = load { ptr, i32 }, ptr %2, align 8
  ret { ptr, i32 } %5
}

; Function Attrs: mustprogress nounwind uwtable
define linkonce_odr hidden noundef i32 @_ZNK17G1AbstractSubTask3tagEv(ptr noundef nonnull align 8 dereferenceable(12) %0) #1 comdat align 2 {
  %2 = alloca ptr, align 8
  store ptr %0, ptr %2, align 8
  %3 = load ptr, ptr %2, align 8
  %4 = getelementptr inbounds %class.G1AbstractSubTask, ptr %3, i32 0, i32 1
  %5 = load i32, ptr %4, align 8
  ret i32 %5
}

; Function Attrs: mustprogress nounwind uwtable
define linkonce_odr hidden noundef nonnull align 8 dereferenceable(8) ptr @_ZN17GrowableArrayViewIP17G1AbstractSubTaskE2atEi(ptr noundef nonnull align 8 dereferenceable(16) %0, i32 noundef %1) #1 comdat align 2 {
  %3 = alloca ptr, align 8
  %4 = alloca i32, align 4
  store ptr %0, ptr %3, align 8
  store i32 %1, ptr %4, align 4
  %5 = load ptr, ptr %3, align 8
  %6 = getelementptr inbounds %class.GrowableArrayView.8, ptr %5, i32 0, i32 1
  %7 = load ptr, ptr %6, align 8
  %8 = load i32, ptr %4, align 4
  %9 = sext i32 %8 to i64
  %10 = getelementptr inbounds ptr, ptr %7, i64 %9
  ret ptr %10
}

; Function Attrs: mustprogress nounwind uwtable
define hidden noundef zeroext i1 @_ZN13G1BatchedTask21try_claim_serial_taskERi(ptr noundef nonnull align 8 dereferenceable(64) %0, ptr noundef nonnull align 4 dereferenceable(4) %1) #1 align 2 {
  %3 = alloca ptr, align 8
  %4 = alloca ptr, align 8
  store ptr %0, ptr %3, align 8
  store ptr %1, ptr %4, align 8
  %5 = load ptr, ptr %3, align 8
  %6 = getelementptr inbounds %class.G1BatchedTask, ptr %5, i32 0, i32 1
  %7 = call noundef i32 @_ZN6Atomic14fetch_then_addIiiEET_PVS1_T0_19atomic_memory_order(ptr noundef %6, i32 noundef 1, i32 noundef 8)
  %8 = load ptr, ptr %4, align 8
  store i32 %7, ptr %8, align 4
  %9 = load ptr, ptr %4, align 8
  %10 = load i32, ptr %9, align 4
  %11 = getelementptr inbounds %class.G1BatchedTask, ptr %5, i32 0, i32 3
  %12 = call noundef i32 @_ZNK17GrowableArrayBase6lengthEv(ptr noundef nonnull align 4 dereferenceable(8) %11)
  %13 = icmp slt i32 %10, %12
  ret i1 %13
}

; Function Attrs: mustprogress nounwind uwtable
define hidden void @_ZN13G1BatchedTask4workEj(ptr noundef nonnull align 8 dereferenceable(64) %0, i32 noundef %1) unnamed_addr #1 align 2 {
  %3 = alloca ptr, align 8
  %4 = alloca i32, align 4
  %5 = alloca i32, align 4
  %6 = alloca ptr, align 8
  %7 = alloca %class.G1GCParPhaseTimesTracker, align 8
  %8 = alloca ptr, align 8
  %9 = alloca %class.GrowableArrayIterator, align 8
  %10 = alloca %class.GrowableArrayIterator, align 8
  %11 = alloca ptr, align 8
  %12 = alloca %class.G1GCParPhaseTimesTracker, align 8
  store ptr %0, ptr %3, align 8
  store i32 %1, ptr %4, align 4
  %13 = load ptr, ptr %3, align 8
  store i32 0, ptr %5, align 4
  br label %14

14:                                               ; preds = %16, %2
  %15 = call noundef zeroext i1 @_ZN13G1BatchedTask21try_claim_serial_taskERi(ptr noundef nonnull align 8 dereferenceable(64) %13, ptr noundef nonnull align 4 dereferenceable(4) %5)
  br i1 %15, label %16, label %31

16:                                               ; preds = %14
  %17 = getelementptr inbounds %class.G1BatchedTask, ptr %13, i32 0, i32 3
  %18 = load i32, ptr %5, align 4
  %19 = call noundef nonnull align 8 dereferenceable(8) ptr @_ZN17GrowableArrayViewIP17G1AbstractSubTaskE2atEi(ptr noundef nonnull align 8 dereferenceable(16) %17, i32 noundef %18)
  %20 = load ptr, ptr %19, align 8
  store ptr %20, ptr %6, align 8
  %21 = getelementptr inbounds %class.G1BatchedTask, ptr %13, i32 0, i32 2
  %22 = load ptr, ptr %21, align 8
  %23 = load ptr, ptr %6, align 8
  %24 = call noundef i32 @_ZNK17G1AbstractSubTask3tagEv(ptr noundef nonnull align 8 dereferenceable(12) %23)
  %25 = load i32, ptr %4, align 4
  call void @_ZN24G1GCParPhaseTimesTrackerC1EP14G1GCPhaseTimesNS0_11GCParPhasesEjb(ptr noundef nonnull align 8 dereferenceable(89) %7, ptr noundef %22, i32 noundef %24, i32 noundef %25, i1 noundef zeroext false)
  %26 = load ptr, ptr %6, align 8
  %27 = load i32, ptr %4, align 4
  %28 = load ptr, ptr %26, align 8
  %29 = getelementptr inbounds ptr, ptr %28, i64 4
  %30 = load ptr, ptr %29, align 8
  call void %30(ptr noundef nonnull align 8 dereferenceable(12) %26, i32 noundef %27)
  call void @_ZN24G1GCParPhaseTimesTrackerD1Ev(ptr noundef nonnull align 8 dereferenceable(89) %7) #9
  br label %14, !llvm.loop !6

31:                                               ; preds = %14
  %32 = getelementptr inbounds %class.G1BatchedTask, ptr %13, i32 0, i32 4
  store ptr %32, ptr %8, align 8
  %33 = load ptr, ptr %8, align 8
  %34 = call { ptr, i32 } @_ZNK17GrowableArrayViewIP17G1AbstractSubTaskE5beginEv(ptr noundef nonnull align 8 dereferenceable(16) %33)
  %35 = getelementptr inbounds { ptr, i32 }, ptr %9, i32 0, i32 0
  %36 = extractvalue { ptr, i32 } %34, 0
  store ptr %36, ptr %35, align 8
  %37 = getelementptr inbounds { ptr, i32 }, ptr %9, i32 0, i32 1
  %38 = extractvalue { ptr, i32 } %34, 1
  store i32 %38, ptr %37, align 8
  %39 = load ptr, ptr %8, align 8
  %40 = call { ptr, i32 } @_ZNK17GrowableArrayViewIP17G1AbstractSubTaskE3endEv(ptr noundef nonnull align 8 dereferenceable(16) %39)
  %41 = getelementptr inbounds { ptr, i32 }, ptr %10, i32 0, i32 0
  %42 = extractvalue { ptr, i32 } %40, 0
  store ptr %42, ptr %41, align 8
  %43 = getelementptr inbounds { ptr, i32 }, ptr %10, i32 0, i32 1
  %44 = extractvalue { ptr, i32 } %40, 1
  store i32 %44, ptr %43, align 8
  br label %45

45:                                               ; preds = %59, %31
  %46 = call noundef zeroext i1 @_ZN21GrowableArrayIteratorIP17G1AbstractSubTaskEneERKS2_(ptr noundef nonnull align 8 dereferenceable(12) %9, ptr noundef nonnull align 8 dereferenceable(12) %10)
  br i1 %46, label %47, label %61

47:                                               ; preds = %45
  %48 = call noundef ptr @_ZN21GrowableArrayIteratorIP17G1AbstractSubTaskEdeEv(ptr noundef nonnull align 8 dereferenceable(12) %9)
  store ptr %48, ptr %11, align 8
  %49 = getelementptr inbounds %class.G1BatchedTask, ptr %13, i32 0, i32 2
  %50 = load ptr, ptr %49, align 8
  %51 = load ptr, ptr %11, align 8
  %52 = call noundef i32 @_ZNK17G1AbstractSubTask3tagEv(ptr noundef nonnull align 8 dereferenceable(12) %51)
  %53 = load i32, ptr %4, align 4
  call void @_ZN24G1GCParPhaseTimesTrackerC1EP14G1GCPhaseTimesNS0_11GCParPhasesEjb(ptr noundef nonnull align 8 dereferenceable(89) %12, ptr noundef %50, i32 noundef %52, i32 noundef %53, i1 noundef zeroext false)
  %54 = load ptr, ptr %11, align 8
  %55 = load i32, ptr %4, align 4
  %56 = load ptr, ptr %54, align 8
  %57 = getelementptr inbounds ptr, ptr %56, i64 4
  %58 = load ptr, ptr %57, align 8
  call void %58(ptr noundef nonnull align 8 dereferenceable(12) %54, i32 noundef %55)
  call void @_ZN24G1GCParPhaseTimesTrackerD1Ev(ptr noundef nonnull align 8 dereferenceable(89) %12) #9
  br label %59

59:                                               ; preds = %47
  %60 = call noundef nonnull align 8 dereferenceable(12) ptr @_ZN21GrowableArrayIteratorIP17G1AbstractSubTaskEppEv(ptr noundef nonnull align 8 dereferenceable(12) %9)
  br label %45

61:                                               ; preds = %45
  ret void
}