; Function Attrs: mustprogress nounwind uwtable
define hidden void @_ZN13G1BatchedTask4workEj(ptr noundef nonnull align 8 dereferenceable(64) %0, i32 noundef %1) unnamed_addr #0 align 2 {
  %3 = alloca %class.G1GCParPhaseTimesTracker, align 8
  %4 = alloca %class.G1GCParPhaseTimesTracker, align 8
  %5 = getelementptr inbounds i8, ptr %0, i64 20
  %6 = tail call noundef i32 asm sideeffect "lock xaddl $0,($2)", "=r,0,r,~{cc},~{memory},~{dirflag},~{fpsr},~{flags}"(i32 1, ptr nonnull %5) #9, !srcloc !6
  %7 = getelementptr inbounds i8, ptr %0, i64 32
  %8 = load i32, ptr %7, align 8
  %9 = icmp slt i32 %6, %8
  br i1 %9, label %.lr.ph, label %._crit_edge

.lr.ph:                                           ; preds = %2
  %10 = getelementptr inbounds i8, ptr %0, i64 40
  %11 = getelementptr inbounds i8, ptr %0, i64 24
  br label %12

12:                                               ; preds = %.lr.ph, %12
  %13 = phi i32 [ %6, %.lr.ph ], [ %24, %12 ]
  %14 = load ptr, ptr %10, align 8
  %15 = sext i32 %13 to i64
  %16 = getelementptr inbounds ptr, ptr %14, i64 %15
  %17 = load ptr, ptr %16, align 8
  %18 = load ptr, ptr %11, align 8
  %19 = getelementptr inbounds i8, ptr %17, i64 8
  %20 = load i32, ptr %19, align 8
  call void @_ZN24G1GCParPhaseTimesTrackerC1EP14G1GCPhaseTimesNS0_11GCParPhasesEjb(ptr noundef nonnull align 8 dereferenceable(89) %3, ptr noundef %18, i32 noundef %20, i32 noundef %1, i1 noundef zeroext false) #9
  %21 = load ptr, ptr %17, align 8
  %22 = getelementptr inbounds i8, ptr %21, i64 32
  %23 = load ptr, ptr %22, align 8
  call void %23(ptr noundef nonnull align 8 dereferenceable(12) %17, i32 noundef %1) #9
  call void @_ZN24G1GCParPhaseTimesTrackerD1Ev(ptr noundef nonnull align 8 dereferenceable(89) %3) #9
  %24 = call noundef i32 asm sideeffect "lock xaddl $0,($2)", "=r,0,r,~{cc},~{memory},~{dirflag},~{fpsr},~{flags}"(i32 1, ptr nonnull %5) #9, !srcloc !6
  %25 = load i32, ptr %7, align 8
  %26 = icmp slt i32 %24, %25
  br i1 %26, label %12, label %._crit_edge, !llvm.loop !7

._crit_edge:                                      ; preds = %12, %2
  %27 = getelementptr inbounds i8, ptr %0, i64 48
  %28 = load i32, ptr %27, align 8
  %.not15 = icmp eq i32 %28, 0
  br i1 %.not15, label %._crit_edge19, label %.lr.ph18

.lr.ph18:                                         ; preds = %._crit_edge
  %29 = getelementptr inbounds i8, ptr %0, i64 56
  %30 = getelementptr inbounds i8, ptr %0, i64 24
  %31 = zext i32 %28 to i64
  br label %32

32:                                               ; preds = %.lr.ph18, %32
  %indvars.iv = phi i64 [ 0, %.lr.ph18 ], [ %indvars.iv.next, %32 ]
  %33 = load ptr, ptr %29, align 8
  %34 = getelementptr inbounds ptr, ptr %33, i64 %indvars.iv
  %35 = load ptr, ptr %34, align 8
  %36 = load ptr, ptr %30, align 8
  %37 = getelementptr inbounds i8, ptr %35, i64 8
  %38 = load i32, ptr %37, align 8
  call void @_ZN24G1GCParPhaseTimesTrackerC1EP14G1GCPhaseTimesNS0_11GCParPhasesEjb(ptr noundef nonnull align 8 dereferenceable(89) %4, ptr noundef %36, i32 noundef %38, i32 noundef %1, i1 noundef zeroext false) #9
  %39 = load ptr, ptr %35, align 8
  %40 = getelementptr inbounds i8, ptr %39, i64 32
  %41 = load ptr, ptr %40, align 8
  call void %41(ptr noundef nonnull align 8 dereferenceable(12) %35, i32 noundef %1) #9
  call void @_ZN24G1GCParPhaseTimesTrackerD1Ev(ptr noundef nonnull align 8 dereferenceable(89) %4) #9
  %indvars.iv.next = add nuw nsw i64 %indvars.iv, 1
  %.not = icmp eq i64 %indvars.iv.next, %31
  br i1 %.not, label %._crit_edge19, label %32

._crit_edge19:                                    ; preds = %32, %._crit_edge
  ret void
}